; ModuleID = '30/3257.c'
source_filename = "30/3257.c"
target datalayout = "e-m:e-p270:32:32-p271:32:32-p272:64:64-i64:64-f80:128-n8:16:32:64-S128"
target triple = "x86_64-pc-linux-gnu"

@.str = private unnamed_addr constant [3 x i8] c"%d\00", align 1

; Function Attrs: noinline nounwind uwtable
define dso_local i32 @main() #0 {
  %1 = alloca i32, align 4
  %2 = alloca i32, align 4
  %3 = alloca i32, align 4
  %4 = alloca i32, align 4
  store i32 0, i32* %1, align 4
  store i32 0, i32* %4, align 4
  %5 = call i32 (i8*, ...) @__isoc99_scanf(i8* getelementptr inbounds ([3 x i8], [3 x i8]* @.str, i64 0, i64 0), i32* %2)
  store i32 1, i32* %3, align 4
  br label %6

6:                                                ; preds = %21, %0
  %7 = load i32, i32* %3, align 4
  %8 = load i32, i32* %2, align 4
  %9 = icmp sle i32 %7, %8
  br i1 %9, label %10, label %24

10:                                               ; preds = %6
  %11 = load i32, i32* %3, align 4
  %12 = call i32 @is_relativeto_7(i32 %11)
  %13 = icmp ne i32 %12, 0
  br i1 %13, label %20, label %14

14:                                               ; preds = %10
  %15 = load i32, i32* %3, align 4
  %16 = load i32, i32* %3, align 4
  %17 = mul nsw i32 %15, %16
  %18 = load i32, i32* %4, align 4
  %19 = add nsw i32 %18, %17
  store i32 %19, i32* %4, align 4
  br label %20

20:                                               ; preds = %14, %10
  br label %21

21:                                               ; preds = %20
  %22 = load i32, i32* %3, align 4
  %23 = add nsw i32 %22, 1
  store i32 %23, i32* %3, align 4
  br label %6

24:                                               ; preds = %6
  %25 = load i32, i32* %4, align 4
  %26 = call i32 (i8*, ...) @printf(i8* getelementptr inbounds ([3 x i8], [3 x i8]* @.str, i64 0, i64 0), i32 %25)
  ret i32 0
}

declare dso_local i32 @__isoc99_scanf(i8*, ...) #1

; Function Attrs: noinline nounwind uwtable
define dso_local i32 @is_relativeto_7(i32 %0) #0 {
  %2 = alloca i32, align 4
  %3 = alloca i32, align 4
  %4 = alloca i32, align 4
  store i32 %0, i32* %3, align 4
  %5 = load i32, i32* %3, align 4
  store i32 %5, i32* %4, align 4
  %6 = load i32, i32* %3, align 4
  %7 = srem i32 %6, 7
  %8 = icmp eq i32 %7, 0
  br i1 %8, label %9, label %10

9:                                                ; preds = %1
  store i32 1, i32* %2, align 4
  br label %23

10:                                               ; preds = %1
  br label %11

11:                                               ; preds = %19, %10
  %12 = load i32, i32* %4, align 4
  %13 = srem i32 %12, 10
  %14 = icmp eq i32 %13, 7
  br i1 %14, label %15, label %16

15:                                               ; preds = %11
  store i32 1, i32* %2, align 4
  br label %23

16:                                               ; preds = %11
  %17 = load i32, i32* %4, align 4
  %18 = sdiv i32 %17, 10
  store i32 %18, i32* %4, align 4
  br label %19

19:                                               ; preds = %16
  %20 = load i32, i32* %4, align 4
  %21 = icmp sgt i32 %20, 0
  br i1 %21, label %11, label %22

22:                                               ; preds = %19
  store i32 0, i32* %2, align 4
  br label %23

23:                                               ; preds = %22, %15, %9
  %24 = load i32, i32* %2, align 4
  ret i32 %24
}

declare dso_local i32 @printf(i8*, ...) #1


!llvm.module.flags = !{!0}
!llvm.ident = !{!1}

!0 = !{i32 1, !"wchar_size", i32 4}
!1 = !{!"clang version 10.0.0-4ubuntu1 "}
